target datalayout = "e-m:e-p270:32:32-p271:32:32-p272:64:64-i64:64-i128:128-f80:128-n8:16:32:64-S128"
target triple = "x86_64-pc-linux-gnu"

%struct.SurfaceDataRasInfo = type { %struct.SurfaceDataBounds, ptr, i32, i32, i32, i32, ptr, ptr, ptr, ptr, ptr, ptr, i32, %union.anon.0 }
%struct.SurfaceDataBounds = type { i32, i32, i32, i32 }
%union.anon.0 = type { ptr, [56 x i8] }

; Function Attrs: nounwind uwtable
define hidden void @IntArgbBmToByteIndexedScaleXparOver(ptr noundef %0, ptr noundef %1, i32 noundef %2, i32 noundef %3, i32 noundef %4, i32 noundef %5, i32 noundef %6, i32 noundef %7, i32 noundef %8, ptr noundef %9, ptr noundef %10, ptr noundef %11, ptr noundef %12) #0 {
  %14 = alloca ptr, align 8
  %15 = alloca ptr, align 8
  %16 = alloca i32, align 4
  %17 = alloca i32, align 4
  %18 = alloca i32, align 4
  %19 = alloca i32, align 4
  %20 = alloca i32, align 4
  %21 = alloca i32, align 4
  %22 = alloca i32, align 4
  %23 = alloca ptr, align 8
  %24 = alloca ptr, align 8
  %25 = alloca ptr, align 8
  %26 = alloca ptr, align 8
  %27 = alloca i32, align 4
  %28 = alloca i32, align 4
  %29 = alloca i32, align 4
  %30 = alloca ptr, align 8
  %31 = alloca ptr, align 8
  %32 = alloca ptr, align 8
  %33 = alloca ptr, align 8
  %34 = alloca ptr, align 8
  %35 = alloca ptr, align 8
  %36 = alloca i32, align 4
  %37 = alloca i32, align 4
  %38 = alloca i32, align 4
  %39 = alloca i32, align 4
  %40 = alloca i32, align 4
  %41 = alloca i32, align 4
  %42 = alloca i32, align 4
  %43 = alloca i32, align 4
  %44 = alloca i32, align 4
  %45 = alloca i32, align 4
  store ptr %0, ptr %14, align 8
  store ptr %1, ptr %15, align 8
  store i32 %2, ptr %16, align 4
  store i32 %3, ptr %17, align 4
  store i32 %4, ptr %18, align 4
  store i32 %5, ptr %19, align 4
  store i32 %6, ptr %20, align 4
  store i32 %7, ptr %21, align 4
  store i32 %8, ptr %22, align 4
  store ptr %9, ptr %23, align 8
  store ptr %10, ptr %24, align 8
  store ptr %11, ptr %25, align 8
  store ptr %12, ptr %26, align 8
  br label %46

46:                                               ; preds = %13
  %47 = load ptr, ptr %15, align 8
  store ptr %47, ptr %35, align 8
  %48 = load ptr, ptr %23, align 8
  %49 = getelementptr inbounds %struct.SurfaceDataRasInfo, ptr %48, i32 0, i32 4
  %50 = load i32, ptr %49, align 8
  store i32 %50, ptr %36, align 4
  %51 = load ptr, ptr %24, align 8
  %52 = getelementptr inbounds %struct.SurfaceDataRasInfo, ptr %51, i32 0, i32 4
  %53 = load i32, ptr %52, align 8
  store i32 %53, ptr %37, align 4
  br label %54

54:                                               ; preds = %46
  br label %55

55:                                               ; preds = %54
  %56 = load ptr, ptr %24, align 8
  %57 = getelementptr inbounds %struct.SurfaceDataRasInfo, ptr %56, i32 0, i32 0
  %58 = getelementptr inbounds %struct.SurfaceDataBounds, ptr %57, i32 0, i32 1
  %59 = load i32, ptr %58, align 4
  %60 = and i32 %59, 7
  %61 = shl i32 %60, 3
  store i32 %61, ptr %28, align 4
  br label %62

62:                                               ; preds = %55
  %63 = load ptr, ptr %24, align 8
  %64 = getelementptr inbounds %struct.SurfaceDataRasInfo, ptr %63, i32 0, i32 7
  %65 = load ptr, ptr %64, align 8
  store ptr %65, ptr %33, align 8
  %66 = load ptr, ptr %24, align 8
  %67 = getelementptr inbounds %struct.SurfaceDataRasInfo, ptr %66, i32 0, i32 12
  %68 = load i32, ptr %67, align 8
  store i32 %68, ptr %29, align 4
  br label %69

69:                                               ; preds = %62
  %70 = load i32, ptr %16, align 4
  %71 = mul i32 %70, 1
  %72 = load i32, ptr %37, align 4
  %73 = sub i32 %72, %71
  store i32 %73, ptr %37, align 4
  br label %74

74:                                               ; preds = %283, %69
  %75 = load i32, ptr %16, align 4
  store i32 %75, ptr %38, align 4
  %76 = load i32, ptr %18, align 4
  store i32 %76, ptr %39, align 4
  %77 = load ptr, ptr %14, align 8
  %78 = ptrtoint ptr %77 to i64
  %79 = load i32, ptr %19, align 4
  %80 = load i32, ptr %22, align 4
  %81 = ashr i32 %79, %80
  %82 = sext i32 %81 to i64
  %83 = load i32, ptr %36, align 4
  %84 = sext i32 %83 to i64
  %85 = mul nsw i64 %82, %84
  %86 = add nsw i64 %78, %85
  %87 = inttoptr i64 %86 to ptr
  store ptr %87, ptr %34, align 8
  br label %88

88:                                               ; preds = %74
  %89 = load ptr, ptr %24, align 8
  %90 = getelementptr inbounds %struct.SurfaceDataRasInfo, ptr %89, i32 0, i32 8
  %91 = load ptr, ptr %90, align 8
  %92 = load i32, ptr %28, align 4
  %93 = sext i32 %92 to i64
  %94 = getelementptr inbounds i8, ptr %91, i64 %93
  store ptr %94, ptr %30, align 8
  %95 = load ptr, ptr %24, align 8
  %96 = getelementptr inbounds %struct.SurfaceDataRasInfo, ptr %95, i32 0, i32 9
  %97 = load ptr, ptr %96, align 8
  %98 = load i32, ptr %28, align 4
  %99 = sext i32 %98 to i64
  %100 = getelementptr inbounds i8, ptr %97, i64 %99
  store ptr %100, ptr %31, align 8
  %101 = load ptr, ptr %24, align 8
  %102 = getelementptr inbounds %struct.SurfaceDataRasInfo, ptr %101, i32 0, i32 10
  %103 = load ptr, ptr %102, align 8
  %104 = load i32, ptr %28, align 4
  %105 = sext i32 %104 to i64
  %106 = getelementptr inbounds i8, ptr %103, i64 %105
  store ptr %106, ptr %32, align 8
  %107 = load ptr, ptr %24, align 8
  %108 = getelementptr inbounds %struct.SurfaceDataRasInfo, ptr %107, i32 0, i32 0
  %109 = getelementptr inbounds %struct.SurfaceDataBounds, ptr %108, i32 0, i32 0
  %110 = load i32, ptr %109, align 8
  %111 = and i32 %110, 7
  store i32 %111, ptr %27, align 4
  br label %112

112:                                              ; preds = %88
  br label %113

113:                                              ; preds = %266, %112
  %114 = load i32, ptr %39, align 4
  %115 = load i32, ptr %22, align 4
  %116 = ashr i32 %114, %115
  store i32 %116, ptr %40, align 4
  br label %117

117:                                              ; preds = %113
  %118 = load ptr, ptr %34, align 8
  %119 = load i32, ptr %40, align 4
  %120 = sext i32 %119 to i64
  %121 = getelementptr inbounds i32, ptr %118, i64 %120
  %122 = load i32, ptr %121, align 4
  store i32 %122, ptr %41, align 4
  %123 = load i32, ptr %41, align 4
  %124 = ashr i32 %123, 24
  %125 = icmp eq i32 %124, 0
  br i1 %125, label %254, label %126

126:                                              ; preds = %117
  %127 = load i32, ptr %41, align 4
  store i32 %127, ptr %42, align 4
  br label %128

128:                                              ; preds = %126
  br label %129

129:                                              ; preds = %128
  %130 = load i32, ptr %42, align 4
  %131 = and i32 %130, 255
  store i32 %131, ptr %45, align 4
  %132 = load i32, ptr %42, align 4
  %133 = ashr i32 %132, 8
  %134 = and i32 %133, 255
  store i32 %134, ptr %44, align 4
  %135 = load i32, ptr %42, align 4
  %136 = ashr i32 %135, 16
  %137 = and i32 %136, 255
  store i32 %137, ptr %43, align 4
  br label %138

138:                                              ; preds = %129
  br label %139

139:                                              ; preds = %138
  %140 = load i32, ptr %43, align 4
  %141 = icmp eq i32 %140, 0
  br i1 %141, label %145, label %142

142:                                              ; preds = %139
  %143 = load i32, ptr %43, align 4
  %144 = icmp eq i32 %143, 255
  br i1 %144, label %145, label %160

145:                                              ; preds = %142, %139
  %146 = load i32, ptr %44, align 4
  %147 = icmp eq i32 %146, 0
  br i1 %147, label %151, label %148

148:                                              ; preds = %145
  %149 = load i32, ptr %44, align 4
  %150 = icmp eq i32 %149, 255
  br i1 %150, label %151, label %160

151:                                              ; preds = %148, %145
  %152 = load i32, ptr %45, align 4
  %153 = icmp eq i32 %152, 0
  br i1 %153, label %157, label %154

154:                                              ; preds = %151
  %155 = load i32, ptr %45, align 4
  %156 = icmp eq i32 %155, 255
  br i1 %156, label %157, label %160

157:                                              ; preds = %154, %151
  %158 = load i32, ptr %29, align 4
  %159 = icmp ne i32 %158, 0
  br i1 %159, label %185, label %160

160:                                              ; preds = %157, %154, %148, %142
  %161 = load ptr, ptr %30, align 8
  %162 = load i32, ptr %27, align 4
  %163 = sext i32 %162 to i64
  %164 = getelementptr inbounds i8, ptr %161, i64 %163
  %165 = load i8, ptr %164, align 1
  %166 = sext i8 %165 to i32
  %167 = load i32, ptr %43, align 4
  %168 = add nsw i32 %167, %166
  store i32 %168, ptr %43, align 4
  %169 = load ptr, ptr %31, align 8
  %170 = load i32, ptr %27, align 4
  %171 = sext i32 %170 to i64
  %172 = getelementptr inbounds i8, ptr %169, i64 %171
  %173 = load i8, ptr %172, align 1
  %174 = sext i8 %173 to i32
  %175 = load i32, ptr %44, align 4
  %176 = add nsw i32 %175, %174
  store i32 %176, ptr %44, align 4
  %177 = load ptr, ptr %32, align 8
  %178 = load i32, ptr %27, align 4
  %179 = sext i32 %178 to i64
  %180 = getelementptr inbounds i8, ptr %177, i64 %179
  %181 = load i8, ptr %180, align 1
  %182 = sext i8 %181 to i32
  %183 = load i32, ptr %45, align 4
  %184 = add nsw i32 %183, %182
  store i32 %184, ptr %45, align 4
  br label %185

185:                                              ; preds = %160, %157
  br label %186

186:                                              ; preds = %185
  %187 = load i32, ptr %43, align 4
  %188 = load i32, ptr %44, align 4
  %189 = or i32 %187, %188
  %190 = load i32, ptr %45, align 4
  %191 = or i32 %189, %190
  %192 = ashr i32 %191, 8
  %193 = icmp ne i32 %192, 0
  br i1 %193, label %194, label %228

194:                                              ; preds = %186
  br label %195

195:                                              ; preds = %194
  %196 = load i32, ptr %43, align 4
  %197 = ashr i32 %196, 8
  %198 = icmp ne i32 %197, 0
  br i1 %198, label %199, label %204

199:                                              ; preds = %195
  %200 = load i32, ptr %43, align 4
  %201 = ashr i32 %200, 31
  %202 = xor i32 %201, -1
  %203 = and i32 %202, 255
  store i32 %203, ptr %43, align 4
  br label %204

204:                                              ; preds = %199, %195
  br label %205

205:                                              ; preds = %204
  br label %206

206:                                              ; preds = %205
  %207 = load i32, ptr %44, align 4
  %208 = ashr i32 %207, 8
  %209 = icmp ne i32 %208, 0
  br i1 %209, label %210, label %215

210:                                              ; preds = %206
  %211 = load i32, ptr %44, align 4
  %212 = ashr i32 %211, 31
  %213 = xor i32 %212, -1
  %214 = and i32 %213, 255
  store i32 %214, ptr %44, align 4
  br label %215

215:                                              ; preds = %210, %206
  br label %216

216:                                              ; preds = %215
  br label %217

217:                                              ; preds = %216
  %218 = load i32, ptr %45, align 4
  %219 = ashr i32 %218, 8
  %220 = icmp ne i32 %219, 0
  br i1 %220, label %221, label %226

221:                                              ; preds = %217
  %222 = load i32, ptr %45, align 4
  %223 = ashr i32 %222, 31
  %224 = xor i32 %223, -1
  %225 = and i32 %224, 255
  store i32 %225, ptr %45, align 4
  br label %226

226:                                              ; preds = %221, %217
  br label %227

227:                                              ; preds = %226
  br label %228

228:                                              ; preds = %227, %186
  br label %229

229:                                              ; preds = %228
  %230 = load ptr, ptr %33, align 8
  %231 = load i32, ptr %43, align 4
  %232 = trunc i32 %231 to i8
  %233 = zext i8 %232 to i32
  %234 = ashr i32 %233, 3
  %235 = shl i32 %234, 10
  %236 = load i32, ptr %44, align 4
  %237 = trunc i32 %236 to i8
  %238 = zext i8 %237 to i32
  %239 = ashr i32 %238, 3
  %240 = shl i32 %239, 5
  %241 = add nsw i32 %235, %240
  %242 = load i32, ptr %45, align 4
  %243 = trunc i32 %242 to i8
  %244 = zext i8 %243 to i32
  %245 = ashr i32 %244, 3
  %246 = add nsw i32 %241, %245
  %247 = sext i32 %246 to i64
  %248 = getelementptr inbounds i8, ptr %230, i64 %247
  %249 = load i8, ptr %248, align 1
  %250 = load ptr, ptr %35, align 8
  %251 = getelementptr inbounds i8, ptr %250, i64 0
  store i8 %249, ptr %251, align 1
  br label %252

252:                                              ; preds = %229
  br label %253

253:                                              ; preds = %252
  br label %254

254:                                              ; preds = %253, %117
  br label %255

255:                                              ; preds = %254
  %256 = load ptr, ptr %35, align 8
  %257 = ptrtoint ptr %256 to i64
  %258 = add nsw i64 %257, 1
  %259 = inttoptr i64 %258 to ptr
  store ptr %259, ptr %35, align 8
  %260 = load i32, ptr %27, align 4
  %261 = add nsw i32 %260, 1
  %262 = and i32 %261, 7
  store i32 %262, ptr %27, align 4
  %263 = load i32, ptr %20, align 4
  %264 = load i32, ptr %39, align 4
  %265 = add nsw i32 %264, %263
  store i32 %265, ptr %39, align 4
  br label %266

266:                                              ; preds = %255
  %267 = load i32, ptr %38, align 4
  %268 = add i32 %267, -1
  store i32 %268, ptr %38, align 4
  %269 = icmp ugt i32 %268, 0
  br i1 %269, label %113, label %270, !llvm.loop !34

270:                                              ; preds = %266
  %271 = load ptr, ptr %35, align 8
  %272 = ptrtoint ptr %271 to i64
  %273 = load i32, ptr %37, align 4
  %274 = sext i32 %273 to i64
  %275 = add nsw i64 %272, %274
  %276 = inttoptr i64 %275 to ptr
  store ptr %276, ptr %35, align 8
  %277 = load i32, ptr %28, align 4
  %278 = add nsw i32 %277, 8
  %279 = and i32 %278, 56
  store i32 %279, ptr %28, align 4
  %280 = load i32, ptr %21, align 4
  %281 = load i32, ptr %19, align 4
  %282 = add nsw i32 %281, %280
  store i32 %282, ptr %19, align 4
  br label %283

283:                                              ; preds = %270
  %284 = load i32, ptr %17, align 4
  %285 = add i32 %284, -1
  store i32 %285, ptr %17, align 4
  %286 = icmp ugt i32 %285, 0
  br i1 %286, label %74, label %287, !llvm.loop !35

287:                                              ; preds = %283
  br label %288

288:                                              ; preds = %287
  ret void
}