; Function Attrs: nofree norecurse nosync nounwind memory(readwrite, inaccessiblemem: none) uwtable
define hidden void @IntArgbBmToByteIndexedScaleXparOver(ptr noundef %0, ptr noundef %1, i32 noundef %2, i32 noundef %3, i32 noundef %4, i32 noundef %5, i32 noundef %6, i32 noundef %7, i32 noundef %8, ptr nocapture noundef readonly %9, ptr nocapture noundef readonly %10, ptr nocapture readnone %11, ptr nocapture readnone %12) #0 {
  %14 = getelementptr inbounds i8, ptr %9, i64 32
  %15 = load i32, ptr %14, align 8
  %16 = getelementptr inbounds i8, ptr %10, i64 32
  %17 = load i32, ptr %16, align 8
  %18 = getelementptr inbounds i8, ptr %10, i64 4
  %19 = load i32, ptr %18, align 4
  %20 = shl i32 %19, 3
  %21 = getelementptr inbounds i8, ptr %10, i64 48
  %22 = load ptr, ptr %21, align 8
  %23 = getelementptr inbounds i8, ptr %10, i64 88
  %24 = load i32, ptr %23, align 8
  %25 = sub i32 %17, %2
  %26 = sext i32 %25 to i64
  %27 = ptrtoint ptr %0 to i64
  %28 = sext i32 %15 to i64
  %29 = getelementptr inbounds i8, ptr %10, i64 56
  %30 = getelementptr inbounds i8, ptr %10, i64 64
  %31 = getelementptr inbounds i8, ptr %10, i64 72
  %32 = icmp ne i32 %24, 0
  br label %33

33:                                               ; preds = %105, %13
  %.088 = phi ptr [ %1, %13 ], [ %107, %105 ]
  %.087.in = phi i32 [ %20, %13 ], [ %108, %105 ]
  %.083 = phi i32 [ %5, %13 ], [ %109, %105 ]
  %.082 = phi i32 [ %3, %13 ], [ %110, %105 ]
  %.087 = and i32 %.087.in, 56
  %34 = ashr i32 %.083, %8
  %35 = sext i32 %34 to i64
  %36 = mul nsw i64 %35, %28
  %37 = add nsw i64 %36, %27
  %38 = inttoptr i64 %37 to ptr
  %39 = load ptr, ptr %29, align 8
  %40 = zext nneg i32 %.087 to i64
  %41 = getelementptr inbounds i8, ptr %39, i64 %40
  %42 = load ptr, ptr %30, align 8
  %43 = getelementptr inbounds i8, ptr %42, i64 %40
  %44 = load ptr, ptr %31, align 8
  %45 = getelementptr inbounds i8, ptr %44, i64 %40
  %46 = load i32, ptr %10, align 8
  br label %47

47:                                               ; preds = %98, %33
  %.189 = phi ptr [ %.088, %33 ], [ %101, %98 ]
  %.086 = phi i32 [ %2, %33 ], [ %104, %98 ]
  %.085 = phi i32 [ %4, %33 ], [ %103, %98 ]
  %.084.in = phi i32 [ %46, %33 ], [ %102, %98 ]
  %.084 = and i32 %.084.in, 7
  %48 = ashr i32 %.085, %8
  %49 = sext i32 %48 to i64
  %50 = getelementptr inbounds i32, ptr %38, i64 %49
  %51 = load i32, ptr %50, align 4
  %52 = icmp ult i32 %51, 16777216
  br i1 %52, label %98, label %53

53:                                               ; preds = %47
  %54 = and i32 %51, 255
  %55 = lshr i32 %51, 8
  %56 = and i32 %55, 255
  %57 = lshr i32 %51, 16
  %58 = and i32 %57, 255
  %trunc = trunc i32 %57 to i8
  switch i8 %trunc, label %63 [
    i8 -1, label %59
    i8 0, label %59
  ]

59:                                               ; preds = %53, %53
  %trunc99 = trunc i32 %55 to i8
  switch i8 %trunc99, label %63 [
    i8 -1, label %60
    i8 0, label %60
  ]

60:                                               ; preds = %59, %59
  %61 = icmp eq i32 %54, 0
  %62 = icmp eq i32 %54, 255
  %or.cond5 = or i1 %61, %62
  %or.cond7 = select i1 %or.cond5, i1 %32, i1 false
  br i1 %or.cond7, label %77, label %63

63:                                               ; preds = %59, %53, %60
  %64 = zext nneg i32 %.084 to i64
  %65 = getelementptr inbounds i8, ptr %41, i64 %64
  %66 = load i8, ptr %65, align 1
  %67 = sext i8 %66 to i32
  %68 = add nsw i32 %58, %67
  %69 = getelementptr inbounds i8, ptr %43, i64 %64
  %70 = load i8, ptr %69, align 1
  %71 = sext i8 %70 to i32
  %72 = add nsw i32 %56, %71
  %73 = getelementptr inbounds i8, ptr %45, i64 %64
  %74 = load i8, ptr %73, align 1
  %75 = sext i8 %74 to i32
  %76 = add nsw i32 %54, %75
  br label %77

77:                                               ; preds = %63, %60
  %.079 = phi i32 [ %58, %60 ], [ %68, %63 ]
  %.077 = phi i32 [ %56, %60 ], [ %72, %63 ]
  %.0 = phi i32 [ %54, %60 ], [ %76, %63 ]
  %78 = or i32 %.077, %.079
  %79 = or i32 %78, %.0
  %.not = icmp ult i32 %79, 256
  br i1 %.not, label %87, label %80

80:                                               ; preds = %77
  %81 = tail call i32 @llvm.smax.i32(i32 %.079, i32 0)
  %82 = tail call i32 @llvm.umin.i32(i32 %81, i32 255)
  %83 = tail call i32 @llvm.smax.i32(i32 %.077, i32 0)
  %84 = tail call i32 @llvm.umin.i32(i32 %83, i32 255)
  %.not95 = icmp ult i32 %.0, 256
  br i1 %.not95, label %87, label %85

85:                                               ; preds = %80
  %isnotneg.inv96 = icmp slt i32 %.0, 0
  %86 = select i1 %isnotneg.inv96, i32 0, i32 255
  br label %87

87:                                               ; preds = %77, %80, %85
  %.281 = phi i32 [ %82, %85 ], [ %82, %80 ], [ %.079, %77 ]
  %.2 = phi i32 [ %84, %85 ], [ %84, %80 ], [ %.077, %77 ]
  %.1 = phi i32 [ %86, %85 ], [ %.0, %80 ], [ %.0, %77 ]
  %88 = shl nsw i32 %.281, 7
  %89 = and i32 %88, 31744
  %90 = shl nsw i32 %.2, 2
  %91 = and i32 %90, 992
  %92 = or disjoint i32 %91, %89
  %93 = lshr i32 %.1, 3
  %94 = or disjoint i32 %92, %93
  %95 = zext nneg i32 %94 to i64
  %96 = getelementptr inbounds i8, ptr %22, i64 %95
  %97 = load i8, ptr %96, align 1
  store i8 %97, ptr %.189, align 1
  br label %98

98:                                               ; preds = %47, %87
  %99 = ptrtoint ptr %.189 to i64
  %100 = add nsw i64 %99, 1
  %101 = inttoptr i64 %100 to ptr
  %102 = add nuw nsw i32 %.084, 1
  %103 = add nsw i32 %.085, %6
  %104 = add i32 %.086, -1
  %.not97 = icmp eq i32 %104, 0
  br i1 %.not97, label %105, label %47, !llvm.loop !35

105:                                              ; preds = %98
  %106 = add nsw i64 %100, %26
  %107 = inttoptr i64 %106 to ptr
  %108 = add nuw nsw i32 %.087, 8
  %109 = add nsw i32 %.083, %7
  %110 = add i32 %.082, -1
  %.not98 = icmp eq i32 %110, 0
  br i1 %.not98, label %111, label %33, !llvm.loop !36

111:                                              ; preds = %105
  ret void
}